; Function Attrs: mustprogress uwtable
define dso_local void @_ZNK5vcpkg14DiagnosticLine8print_toERNS_11MessageSinkE(ptr noundef nonnull align 8 dereferenceable(88) %0, ptr noundef nonnull align 8 dereferenceable(8) %1) local_unnamed_addr #0 align 2 personality ptr @__gxx_personality_v0 {
  %3 = alloca %"struct.vcpkg::MessageLine", align 8
  call void @llvm.lifetime.start.p0(i64 24, ptr nonnull %3) #26
  call void @_ZNK5vcpkg14DiagnosticLine15to_message_lineEv(ptr dead_on_unwind nonnull writable sret(%"struct.vcpkg::MessageLine") align 8 %3, ptr noundef nonnull align 8 dereferenceable(88) %0)
  %4 = load ptr, ptr %1, align 8, !tbaa !4
  %5 = getelementptr inbounds nuw i8, ptr %4, i64 8
  %6 = load ptr, ptr %5, align 8
  invoke void %6(ptr noundef nonnull align 8 dereferenceable(8) %1, ptr noundef nonnull align 8 dereferenceable(24) %3)
          to label %7 unwind label %28

7:                                                ; preds = %2
  %8 = load ptr, ptr %3, align 8, !tbaa !42
  %9 = getelementptr inbounds nuw i8, ptr %3, i64 8
  %10 = load ptr, ptr %9, align 8, !tbaa !45
  %.not4.i.i.i.i.i = icmp eq ptr %8, %10
  br i1 %.not4.i.i.i.i.i, label %_ZSt8_DestroyIPN5vcpkg18MessageLineSegmentES1_EvT_S3_RSaIT0_E.exit.i.i, label %.lr.ph.i.i.i.i.i

.lr.ph.i.i.i.i.i:                                 ; preds = %7, %_ZSt8_DestroyIN5vcpkg18MessageLineSegmentEEvPT_.exit.i.i.i.i.i
  %.05.i.i.i.i.i = phi ptr [ %20, %_ZSt8_DestroyIN5vcpkg18MessageLineSegmentEEvPT_.exit.i.i.i.i.i ], [ %8, %7 ]
  %11 = getelementptr inbounds nuw i8, ptr %.05.i.i.i.i.i, i64 8
  %12 = load ptr, ptr %11, align 8, !tbaa !12
  %13 = getelementptr inbounds nuw i8, ptr %.05.i.i.i.i.i, i64 24
  %14 = icmp eq ptr %12, %13
  br i1 %14, label %_ZNKSt7__cxx1112basic_stringIcSt11char_traitsIcESaIcEE11_M_is_localEv.exit.thread.i.i.i.i.i.i.i.i.i, label %_ZNKSt7__cxx1112basic_stringIcSt11char_traitsIcESaIcEE11_M_is_localEv.exit.i.i.i.i.i.i.i.i.i

_ZNKSt7__cxx1112basic_stringIcSt11char_traitsIcESaIcEE11_M_is_localEv.exit.thread.i.i.i.i.i.i.i.i.i: ; preds = %.lr.ph.i.i.i.i.i
  %15 = getelementptr inbounds nuw i8, ptr %.05.i.i.i.i.i, i64 16
  %16 = load i64, ptr %15, align 8, !tbaa !17
  %17 = icmp ult i64 %16, 16
  call void @llvm.assume(i1 %17)
  br label %_ZSt8_DestroyIN5vcpkg18MessageLineSegmentEEvPT_.exit.i.i.i.i.i

_ZNKSt7__cxx1112basic_stringIcSt11char_traitsIcESaIcEE11_M_is_localEv.exit.i.i.i.i.i.i.i.i.i: ; preds = %.lr.ph.i.i.i.i.i
  %18 = load i64, ptr %13, align 8, !tbaa !18
  %19 = add i64 %18, 1
  call void @_ZdlPvm(ptr noundef %12, i64 noundef %19) #28
  br label %_ZSt8_DestroyIN5vcpkg18MessageLineSegmentEEvPT_.exit.i.i.i.i.i

_ZSt8_DestroyIN5vcpkg18MessageLineSegmentEEvPT_.exit.i.i.i.i.i: ; preds = %_ZNKSt7__cxx1112basic_stringIcSt11char_traitsIcESaIcEE11_M_is_localEv.exit.i.i.i.i.i.i.i.i.i, %_ZNKSt7__cxx1112basic_stringIcSt11char_traitsIcESaIcEE11_M_is_localEv.exit.thread.i.i.i.i.i.i.i.i.i
  %20 = getelementptr inbounds nuw i8, ptr %.05.i.i.i.i.i, i64 40
  %.not.i.i.i.i.i = icmp eq ptr %20, %10
  br i1 %.not.i.i.i.i.i, label %_ZSt8_DestroyIPN5vcpkg18MessageLineSegmentES1_EvT_S3_RSaIT0_E.exitthread-pre-split.i.i, label %.lr.ph.i.i.i.i.i, !llvm.loop !46

_ZSt8_DestroyIPN5vcpkg18MessageLineSegmentES1_EvT_S3_RSaIT0_E.exitthread-pre-split.i.i: ; preds = %_ZSt8_DestroyIN5vcpkg18MessageLineSegmentEEvPT_.exit.i.i.i.i.i
  %.pr.i.i = load ptr, ptr %3, align 8, !tbaa !42
  br label %_ZSt8_DestroyIPN5vcpkg18MessageLineSegmentES1_EvT_S3_RSaIT0_E.exit.i.i

_ZSt8_DestroyIPN5vcpkg18MessageLineSegmentES1_EvT_S3_RSaIT0_E.exit.i.i: ; preds = %_ZSt8_DestroyIPN5vcpkg18MessageLineSegmentES1_EvT_S3_RSaIT0_E.exitthread-pre-split.i.i, %7
  %21 = phi ptr [ %.pr.i.i, %_ZSt8_DestroyIPN5vcpkg18MessageLineSegmentES1_EvT_S3_RSaIT0_E.exitthread-pre-split.i.i ], [ %8, %7 ]
  %.not.i.i.i.i = icmp eq ptr %21, null
  br i1 %.not.i.i.i.i, label %_ZN5vcpkg11MessageLineD2Ev.exit, label %22

22:                                               ; preds = %_ZSt8_DestroyIPN5vcpkg18MessageLineSegmentES1_EvT_S3_RSaIT0_E.exit.i.i
  %23 = getelementptr inbounds nuw i8, ptr %3, i64 16
  %24 = load ptr, ptr %23, align 8, !tbaa !48
  %25 = ptrtoint ptr %24 to i64
  %26 = ptrtoint ptr %21 to i64
  %27 = sub i64 %25, %26
  call void @_ZdlPvm(ptr noundef nonnull %21, i64 noundef %27) #28
  br label %_ZN5vcpkg11MessageLineD2Ev.exit

_ZN5vcpkg11MessageLineD2Ev.exit:                  ; preds = %_ZSt8_DestroyIPN5vcpkg18MessageLineSegmentES1_EvT_S3_RSaIT0_E.exit.i.i, %22
  call void @llvm.lifetime.end.p0(i64 24, ptr nonnull %3) #26
  ret void

28:                                               ; preds = %2
  %29 = landingpad { ptr, i32 }
          cleanup
  call void @_ZN5vcpkg11MessageLineD2Ev(ptr noundef nonnull align 8 dereferenceable(24) %3) #26
  call void @llvm.lifetime.end.p0(i64 24, ptr nonnull %3) #26
  resume { ptr, i32 } %29
}